; Function Attrs: nounwind uwtable
define i64 @nghttp2_hd_deflate_hd_vec(ptr noundef %0, ptr noundef %1, i64 noundef %2, ptr noundef readonly captures(none) %3, i64 noundef %4) local_unnamed_addr #0 {
  %6 = alloca %struct.nghttp2_bufs, align 8
  call void @llvm.lifetime.start.p0(i64 64, ptr nonnull %6) #12
  %7 = getelementptr inbounds nuw i8, ptr %0, i64 32
  %8 = load ptr, ptr %7, align 8, !tbaa !82
  %9 = call i32 @nghttp2_bufs_wrap_init2(ptr noundef nonnull %6, ptr noundef %1, i64 noundef %2, ptr noundef %8) #12
  %.not.i = icmp eq i32 %9, 0
  br i1 %.not.i, label %12, label %10

10:                                               ; preds = %5
  %11 = sext i32 %9 to i64
  br label %nghttp2_hd_deflate_hd_vec2.exit

12:                                               ; preds = %5
  %13 = call i32 @nghttp2_hd_deflate_hd_bufs(ptr noundef nonnull %0, ptr noundef nonnull %6, ptr noundef readonly %3, i64 noundef %4)
  %14 = call i64 @nghttp2_bufs_len(ptr noundef nonnull %6) #12
  call void @nghttp2_bufs_wrap_free(ptr noundef nonnull %6) #12
  switch i32 %13, label %15 [
    i32 -502, label %nghttp2_hd_deflate_hd_vec2.exit
    i32 0, label %17
  ]

15:                                               ; preds = %12
  %16 = sext i32 %13 to i64
  br label %nghttp2_hd_deflate_hd_vec2.exit

17:                                               ; preds = %12
  br label %nghttp2_hd_deflate_hd_vec2.exit

nghttp2_hd_deflate_hd_vec2.exit:                  ; preds = %10, %12, %15, %17
  %.0.i = phi i64 [ %11, %10 ], [ %16, %15 ], [ %14, %17 ], [ -525, %12 ]
  call void @llvm.lifetime.end.p0(i64 64, ptr nonnull %6) #12
  ret i64 %.0.i
}